; Function Attrs: mustprogress nofree norecurse nosync nounwind willreturn memory(argmem: read) uwtable
define dso_local i64 @hdr_next_non_equivalent_value(ptr nocapture noundef readonly %h, i64 noundef %value) local_unnamed_addr #0 {
entry:
  %sub_bucket_mask.i.i = getelementptr inbounds i8, ptr %h, i64 32
  %0 = load i64, ptr %sub_bucket_mask.i.i, align 8
  %or.i.i = or i64 %0, %value
  %1 = tail call i64 @llvm.ctlz.i64(i64 %or.i.i, i1 true), !range !5
  %cast.i.i.i = trunc i64 %1 to i32
  %sub_bucket_half_count_magnitude.i.i = getelementptr inbounds i8, ptr %h, i64 24
  %2 = load i32, ptr %sub_bucket_half_count_magnitude.i.i, align 8
  %3 = add i32 %2, %cast.i.i.i
  %add.i.i = sub i32 63, %3
  %sh_prom.i.i = zext nneg i32 %add.i.i to i64
  %shr.i.i = ashr i64 %value, %sh_prom.i.i
  %sext.i = shl i64 %shr.i.i, 32
  %conv.i5.i = ashr exact i64 %sext.i, 32
  %shl.i.i = shl i64 %conv.i5.i, %sh_prom.i.i
  %conv.i.i = trunc i64 %shr.i.i to i32
  %sub_bucket_count.i = getelementptr inbounds i8, ptr %h, i64 40
  %4 = load i32, ptr %sub_bucket_count.i, align 8
  %cmp.not.i = icmp sle i32 %4, %conv.i.i
  %add.i = zext i1 %cmp.not.i to i32
  %add3.i = add i32 %add.i.i, %add.i
  %sh_prom.i = zext nneg i32 %add3.i to i64
  %shl.i = shl nuw i64 1, %sh_prom.i
  %add = add nsw i64 %shl.i, %shl.i.i
  ret i64 %add
}